target datalayout = "e-m:e-p270:32:32-p271:32:32-p272:64:64-i64:64-i128:128-f80:128-n8:16:32:64-S128"
target triple = "x86_64-unknown-linux-gnu"

%struct.app_flags = type { i24 }
%class.base_macro_solver = type { ptr, ptr, ptr, ptr }
%class.ast = type { i32, i24, i32, i32 }
%class.quantifier_macro_info = type { ptr, ptr, %class.obj_ref, i8, i8, [6 x i8], %class.obj_hashtable, %class.scoped_ptr_vector, %class.obj_ref.47 }
%class.obj_ref = type { ptr, ptr }
%class.obj_hashtable = type { %class.core_hashtable.base.44, [4 x i8] }
%class.core_hashtable.base.44 = type <{ ptr, i32, i32, i32 }>
%class.scoped_ptr_vector = type { %class.ptr_vector.45 }
%class.ptr_vector.45 = type { %class.vector.46 }
%class.vector.46 = type { ptr }
%class.obj_ref.47 = type { ptr, ptr }
%class.cond_macro = type { ptr, %class.obj_ref.48, %class.obj_ref.48, i8, i8, i8, i32 }
%class.obj_ref.48 = type { ptr, ptr }
%class.expr = type { %class.ast }
%class.app = type { %class.expr, ptr, i32, [0 x ptr] }

@_ZN3app16g_constant_flagsE = external global %struct.app_flags, align 4

; Function Attrs: mustprogress nounwind uwtable
define linkonce_odr hidden noundef ptr @_ZNK3app5flagsEv(ptr noundef nonnull align 8 dereferenceable(32) %this) #5 comdat align 2 {
entry:
  %this.addr = alloca ptr, align 8
  store ptr %this, ptr %this.addr, align 8
  %this1 = load ptr, ptr %this.addr, align 8
  %m_num_args = getelementptr inbounds %class.app, ptr %this1, i32 0, i32 2
  %0 = load i32, ptr %m_num_args, align 8
  %cmp = icmp eq i32 %0, 0
  br i1 %cmp, label %cond.true, label %cond.false

cond.true:                                        ; preds = %entry
  br label %cond.end

cond.false:                                       ; preds = %entry
  %m_args = getelementptr inbounds %class.app, ptr %this1, i32 0, i32 3
  %arraydecay = getelementptr inbounds [0 x ptr], ptr %m_args, i64 0, i64 0
  %m_num_args2 = getelementptr inbounds %class.app, ptr %this1, i32 0, i32 2
  %1 = load i32, ptr %m_num_args2, align 8
  %idx.ext = zext i32 %1 to i64
  %add.ptr = getelementptr inbounds ptr, ptr %arraydecay, i64 %idx.ext
  br label %cond.end

cond.end:                                         ; preds = %cond.false, %cond.true
  %cond = phi ptr [ @_ZN3app16g_constant_flagsE, %cond.true ], [ %add.ptr, %cond.false ]
  ret ptr %cond
}

; Function Attrs: mustprogress nounwind uwtable
define linkonce_odr hidden noundef i32 @_ZNK3ast8get_kindEv(ptr noundef nonnull align 4 dereferenceable(16) %this) #5 comdat align 2 {
entry:
  %this.addr = alloca ptr, align 8
  store ptr %this, ptr %this.addr, align 8
  %this1 = load ptr, ptr %this.addr, align 8
  %m_kind = getelementptr inbounds %class.ast, ptr %this1, i32 0, i32 1
  %bf.load = load i32, ptr %m_kind, align 4
  %bf.clear = and i32 %bf.load, 65535
  ret i32 %bf.clear
}

; Function Attrs: mustprogress uwtable
define linkonce_odr hidden noundef zeroext i1 @_ZNK3app9is_groundEv(ptr noundef nonnull align 8 dereferenceable(32) %this) #4 comdat align 2 {
entry:
  %this.addr = alloca ptr, align 8
  store ptr %this, ptr %this.addr, align 8
  %this1 = load ptr, ptr %this.addr, align 8
  %call = call noundef ptr @_ZNK3app5flagsEv(ptr noundef nonnull align 8 dereferenceable(32) %this1)
  %bf.load = load i32, ptr %call, align 4
  %bf.lshr = lshr i32 %bf.load, 16
  %bf.clear = and i32 %bf.lshr, 1
  %tobool = icmp ne i32 %bf.clear, 0
  ret i1 %tobool
}

; Function Attrs: mustprogress nounwind uwtable
define linkonce_odr hidden noundef ptr @_Z6to_appPK3ast(ptr noundef %n) #5 comdat {
entry:
  %n.addr = alloca ptr, align 8
  store ptr %n, ptr %n.addr, align 8
  %0 = load ptr, ptr %n.addr, align 8
  ret ptr %0
}

; Function Attrs: mustprogress uwtable
define linkonce_odr hidden noundef zeroext i1 @_Z6is_appPK3ast(ptr noundef %n) #4 comdat {
entry:
  %n.addr = alloca ptr, align 8
  store ptr %n, ptr %n.addr, align 8
  %0 = load ptr, ptr %n.addr, align 8
  %call = call noundef i32 @_ZNK3ast8get_kindEv(ptr noundef nonnull align 4 dereferenceable(16) %0)
  %cmp = icmp eq i32 %call, 0
  ret i1 %cmp
}

; Function Attrs: mustprogress nounwind uwtable
define linkonce_odr hidden noundef ptr @_ZNK7obj_refI4expr11ast_managerEcvPS0_Ev(ptr noundef nonnull align 8 dereferenceable(16) %this) #5 comdat align 2 {
entry:
  %this.addr = alloca ptr, align 8
  store ptr %this, ptr %this.addr, align 8
  %this1 = load ptr, ptr %this.addr, align 8
  %m_obj = getelementptr inbounds %class.obj_ref.48, ptr %this1, i32 0, i32 0
  %0 = load ptr, ptr %m_obj, align 8
  ret ptr %0
}

; Function Attrs: mustprogress nounwind uwtable
define linkonce_odr hidden noundef i32 @_ZNK6vectorIP10cond_macroLb0EjE4sizeEv(ptr noundef nonnull align 8 dereferenceable(8) %this) #5 comdat align 2 {
entry:
  %retval = alloca i32, align 4
  %this.addr = alloca ptr, align 8
  store ptr %this, ptr %this.addr, align 8
  %this1 = load ptr, ptr %this.addr, align 8
  %m_data = getelementptr inbounds %class.vector.46, ptr %this1, i32 0, i32 0
  %0 = load ptr, ptr %m_data, align 8
  %cmp = icmp eq ptr %0, null
  br i1 %cmp, label %if.then, label %if.end

if.then:                                          ; preds = %entry
  store i32 0, ptr %retval, align 4
  br label %return

if.end:                                           ; preds = %entry
  %m_data2 = getelementptr inbounds %class.vector.46, ptr %this1, i32 0, i32 0
  %1 = load ptr, ptr %m_data2, align 8
  %arrayidx = getelementptr inbounds i32, ptr %1, i64 -1
  %2 = load i32, ptr %arrayidx, align 4
  store i32 %2, ptr %retval, align 4
  br label %return

return:                                           ; preds = %if.end, %if.then
  %3 = load i32, ptr %retval, align 4
  ret i32 %3
}

; Function Attrs: mustprogress uwtable
define linkonce_odr hidden noundef zeroext i1 @_Z9is_groundPK4expr(ptr noundef %n) #4 comdat {
entry:
  %n.addr = alloca ptr, align 8
  store ptr %n, ptr %n.addr, align 8
  %0 = load ptr, ptr %n.addr, align 8
  %call = call noundef zeroext i1 @_Z6is_appPK3ast(ptr noundef %0)
  br i1 %call, label %land.rhs, label %land.end

land.rhs:                                         ; preds = %entry
  %1 = load ptr, ptr %n.addr, align 8
  %call1 = call noundef ptr @_Z6to_appPK3ast(ptr noundef %1)
  %call2 = call noundef zeroext i1 @_ZNK3app9is_groundEv(ptr noundef nonnull align 8 dereferenceable(32) %call1)
  br label %land.end

land.end:                                         ; preds = %land.rhs, %entry
  %2 = phi i1 [ false, %entry ], [ %call2, %land.rhs ]
  ret i1 %2
}

; Function Attrs: mustprogress uwtable
define linkonce_odr hidden noundef ptr @_ZNK10cond_macro7get_defEv(ptr noundef nonnull align 8 dereferenceable(48) %this) #4 comdat align 2 {
entry:
  %this.addr = alloca ptr, align 8
  store ptr %this, ptr %this.addr, align 8
  %this1 = load ptr, ptr %this.addr, align 8
  %m_def = getelementptr inbounds %class.cond_macro, ptr %this1, i32 0, i32 1
  %call = call noundef ptr @_ZNK7obj_refI4expr11ast_managerEcvPS0_Ev(ptr noundef nonnull align 8 dereferenceable(16) %m_def)
  ret ptr %call
}

; Function Attrs: mustprogress uwtable
define linkonce_odr hidden noundef ptr @_ZNK6vectorIP10cond_macroLb0EjE3endEv(ptr noundef nonnull align 8 dereferenceable(8) %this) #4 comdat align 2 {
entry:
  %this.addr = alloca ptr, align 8
  store ptr %this, ptr %this.addr, align 8
  %this1 = load ptr, ptr %this.addr, align 8
  %m_data = getelementptr inbounds %class.vector.46, ptr %this1, i32 0, i32 0
  %0 = load ptr, ptr %m_data, align 8
  %call = call noundef i32 @_ZNK6vectorIP10cond_macroLb0EjE4sizeEv(ptr noundef nonnull align 8 dereferenceable(8) %this1)
  %idx.ext = zext i32 %call to i64
  %add.ptr = getelementptr inbounds ptr, ptr %0, i64 %idx.ext
  ret ptr %add.ptr
}

; Function Attrs: mustprogress nounwind uwtable
define linkonce_odr hidden noundef ptr @_ZNK6vectorIP10cond_macroLb0EjE5beginEv(ptr noundef nonnull align 8 dereferenceable(8) %this) #5 comdat align 2 {
entry:
  %this.addr = alloca ptr, align 8
  store ptr %this, ptr %this.addr, align 8
  %this1 = load ptr, ptr %this.addr, align 8
  %m_data = getelementptr inbounds %class.vector.46, ptr %this1, i32 0, i32 0
  %0 = load ptr, ptr %m_data, align 8
  ret ptr %0
}

; Function Attrs: mustprogress uwtable
define hidden noundef zeroext i1 @_ZN20non_auf_macro_solver15is_better_macroEP10cond_macroS1_(ptr noundef nonnull align 8 dereferenceable(44) %this, ptr noundef %r1, ptr noundef %r2) #4 align 2 {
entry:
  %retval = alloca i1, align 1
  %this.addr = alloca ptr, align 8
  %r1.addr = alloca ptr, align 8
  %r2.addr = alloca ptr, align 8
  store ptr %this, ptr %this.addr, align 8
  store ptr %r1, ptr %r1.addr, align 8
  store ptr %r2, ptr %r2.addr, align 8
  %0 = load ptr, ptr %r2.addr, align 8
  %cmp = icmp eq ptr %0, null
  br i1 %cmp, label %if.then, label %lor.lhs.false

lor.lhs.false:                                    ; preds = %entry
  %1 = load ptr, ptr %r1.addr, align 8
  %call = call noundef zeroext i1 @_ZNK10cond_macro7is_hintEv(ptr noundef nonnull align 8 dereferenceable(48) %1)
  br i1 %call, label %if.end, label %if.then

if.then:                                          ; preds = %lor.lhs.false, %entry
  store i1 true, ptr %retval, align 1
  br label %return

if.end:                                           ; preds = %lor.lhs.false
  %2 = load ptr, ptr %r2.addr, align 8
  %call2 = call noundef zeroext i1 @_ZNK10cond_macro7is_hintEv(ptr noundef nonnull align 8 dereferenceable(48) %2)
  br i1 %call2, label %if.end4, label %if.then3

if.then3:                                         ; preds = %if.end
  store i1 false, ptr %retval, align 1
  br label %return

if.end4:                                          ; preds = %if.end
  %3 = load ptr, ptr %r1.addr, align 8
  %call5 = call noundef ptr @_ZNK10cond_macro7get_defEv(ptr noundef nonnull align 8 dereferenceable(48) %3)
  %call6 = call noundef zeroext i1 @_Z9is_groundPK4expr(ptr noundef %call5)
  br i1 %call6, label %land.lhs.true, label %if.end10

land.lhs.true:                                    ; preds = %if.end4
  %4 = load ptr, ptr %r2.addr, align 8
  %call7 = call noundef ptr @_ZNK10cond_macro7get_defEv(ptr noundef nonnull align 8 dereferenceable(48) %4)
  %call8 = call noundef zeroext i1 @_Z9is_groundPK4expr(ptr noundef %call7)
  br i1 %call8, label %if.end10, label %if.then9

if.then9:                                         ; preds = %land.lhs.true
  store i1 true, ptr %retval, align 1
  br label %return

if.end10:                                         ; preds = %land.lhs.true, %if.end4
  store i1 false, ptr %retval, align 1
  br label %return

return:                                           ; preds = %if.end10, %if.then9, %if.then3, %if.then
  %5 = load i1, ptr %retval, align 1
  ret i1 %5
}

; Function Attrs: mustprogress nounwind uwtable
define linkonce_odr hidden noundef zeroext i1 @_ZNK10cond_macro7is_hintEv(ptr noundef nonnull align 8 dereferenceable(48) %this) #5 comdat align 2 {
entry:
  %this.addr = alloca ptr, align 8
  store ptr %this, ptr %this.addr, align 8
  %this1 = load ptr, ptr %this.addr, align 8
  %m_hint = getelementptr inbounds %class.cond_macro, ptr %this1, i32 0, i32 5
  %0 = load i8, ptr %m_hint, align 2
  %tobool = trunc i8 %0 to i1
  ret i1 %tobool
}

; Function Attrs: mustprogress nounwind uwtable
define linkonce_odr hidden noundef ptr @_ZNK10cond_macro5get_fEv(ptr noundef nonnull align 8 dereferenceable(48) %this) #5 comdat align 2 {
entry:
  %this.addr = alloca ptr, align 8
  store ptr %this, ptr %this.addr, align 8
  %this1 = load ptr, ptr %this.addr, align 8
  %m_f = getelementptr inbounds %class.cond_macro, ptr %this1, i32 0, i32 0
  %0 = load ptr, ptr %m_f, align 8
  ret ptr %0
}

; Function Attrs: mustprogress uwtable
define linkonce_odr hidden noundef ptr @_ZNK17scoped_ptr_vectorI10cond_macroE3endEv(ptr noundef nonnull align 8 dereferenceable(8) %this) #4 comdat align 2 {
entry:
  %this.addr = alloca ptr, align 8
  store ptr %this, ptr %this.addr, align 8
  %this1 = load ptr, ptr %this.addr, align 8
  %m_vector = getelementptr inbounds %class.scoped_ptr_vector, ptr %this1, i32 0, i32 0
  %call = call noundef ptr @_ZNK6vectorIP10cond_macroLb0EjE3endEv(ptr noundef nonnull align 8 dereferenceable(8) %m_vector)
  ret ptr %call
}

; Function Attrs: mustprogress uwtable
define linkonce_odr hidden noundef ptr @_ZNK17scoped_ptr_vectorI10cond_macroE5beginEv(ptr noundef nonnull align 8 dereferenceable(8) %this) #4 comdat align 2 {
entry:
  %this.addr = alloca ptr, align 8
  store ptr %this, ptr %this.addr, align 8
  %this1 = load ptr, ptr %this.addr, align 8
  %m_vector = getelementptr inbounds %class.scoped_ptr_vector, ptr %this1, i32 0, i32 0
  %call = call noundef ptr @_ZNK6vectorIP10cond_macroLb0EjE5beginEv(ptr noundef nonnull align 8 dereferenceable(8) %m_vector)
  ret ptr %call
}

; Function Attrs: mustprogress nounwind uwtable
define linkonce_odr hidden noundef nonnull align 8 dereferenceable(8) ptr @_ZNK21quantifier_macro_info6macrosEv(ptr noundef nonnull align 8 dereferenceable(88) %this) #5 comdat align 2 {
entry:
  %this.addr = alloca ptr, align 8
  store ptr %this, ptr %this.addr, align 8
  %this1 = load ptr, ptr %this.addr, align 8
  %m_cond_macros = getelementptr inbounds %class.quantifier_macro_info, ptr %this1, i32 0, i32 7
  ret ptr %m_cond_macros
}

; Function Attrs: mustprogress uwtable
define linkonce_odr hidden noundef ptr @_ZNK17base_macro_solver9get_qinfoEP10quantifier(ptr noundef nonnull align 8 dereferenceable(32) %this, ptr noundef %q) #4 comdat align 2 {
entry:
  %this.addr = alloca ptr, align 8
  %q.addr = alloca ptr, align 8
  store ptr %this, ptr %this.addr, align 8
  store ptr %q, ptr %q.addr, align 8
  %this1 = load ptr, ptr %this.addr, align 8
  %m_q2info = getelementptr inbounds %class.base_macro_solver, ptr %this1, i32 0, i32 2
  %0 = load ptr, ptr %m_q2info, align 8
  %1 = load ptr, ptr %q.addr, align 8
  %vtable = load ptr, ptr %0, align 8
  %vfn = getelementptr inbounds ptr, ptr %vtable, i64 2
  %2 = load ptr, ptr %vfn, align 8
  %call = call noundef ptr %2(ptr noundef nonnull align 8 dereferenceable(8) %0, ptr noundef %1)
  ret ptr %call
}

; Function Attrs: mustprogress uwtable
define hidden noundef ptr @_ZN20non_auf_macro_solver13get_macro_forEP9func_declP10quantifier(ptr noundef nonnull align 8 dereferenceable(44) %this, ptr noundef %f, ptr noundef %q) #4 align 2 {
entry:
  %this.addr = alloca ptr, align 8
  %f.addr = alloca ptr, align 8
  %q.addr = alloca ptr, align 8
  %r = alloca ptr, align 8
  %qi = alloca ptr, align 8
  %__range1 = alloca ptr, align 8
  %__begin1 = alloca ptr, align 8
  %__end1 = alloca ptr, align 8
  %m = alloca ptr, align 8
  store ptr %this, ptr %this.addr, align 8
  store ptr %f, ptr %f.addr, align 8
  store ptr %q, ptr %q.addr, align 8
  %this1 = load ptr, ptr %this.addr, align 8
  store ptr null, ptr %r, align 8
  %0 = load ptr, ptr %q.addr, align 8
  %call = call noundef ptr @_ZNK17base_macro_solver9get_qinfoEP10quantifier(ptr noundef nonnull align 8 dereferenceable(32) %this1, ptr noundef %0)
  store ptr %call, ptr %qi, align 8
  %1 = load ptr, ptr %qi, align 8
  %call2 = call noundef nonnull align 8 dereferenceable(8) ptr @_ZNK21quantifier_macro_info6macrosEv(ptr noundef nonnull align 8 dereferenceable(88) %1)
  store ptr %call2, ptr %__range1, align 8
  %2 = load ptr, ptr %__range1, align 8
  %call3 = call noundef ptr @_ZNK17scoped_ptr_vectorI10cond_macroE5beginEv(ptr noundef nonnull align 8 dereferenceable(8) %2)
  store ptr %call3, ptr %__begin1, align 8
  %3 = load ptr, ptr %__range1, align 8
  %call4 = call noundef ptr @_ZNK17scoped_ptr_vectorI10cond_macroE3endEv(ptr noundef nonnull align 8 dereferenceable(8) %3)
  store ptr %call4, ptr %__end1, align 8
  br label %for.cond

for.cond:                                         ; preds = %for.inc, %entry
  %4 = load ptr, ptr %__begin1, align 8
  %5 = load ptr, ptr %__end1, align 8
  %cmp = icmp ne ptr %4, %5
  br i1 %cmp, label %for.body, label %for.end

for.body:                                         ; preds = %for.cond
  %6 = load ptr, ptr %__begin1, align 8
  %7 = load ptr, ptr %6, align 8
  store ptr %7, ptr %m, align 8
  %8 = load ptr, ptr %m, align 8
  %call5 = call noundef ptr @_ZNK10cond_macro5get_fEv(ptr noundef nonnull align 8 dereferenceable(48) %8)
  %9 = load ptr, ptr %f.addr, align 8
  %cmp6 = icmp eq ptr %call5, %9
  br i1 %cmp6, label %land.lhs.true, label %if.end

land.lhs.true:                                    ; preds = %for.body
  %10 = load ptr, ptr %m, align 8
  %call7 = call noundef zeroext i1 @_ZNK10cond_macro7is_hintEv(ptr noundef nonnull align 8 dereferenceable(48) %10)
  br i1 %call7, label %if.end, label %land.lhs.true8

land.lhs.true8:                                   ; preds = %land.lhs.true
  %11 = load ptr, ptr %m, align 8
  %12 = load ptr, ptr %r, align 8
  %call9 = call noundef zeroext i1 @_ZN20non_auf_macro_solver15is_better_macroEP10cond_macroS1_(ptr noundef nonnull align 8 dereferenceable(44) %this1, ptr noundef %11, ptr noundef %12)
  br i1 %call9, label %if.then, label %if.end

if.then:                                          ; preds = %land.lhs.true8
  %13 = load ptr, ptr %m, align 8
  store ptr %13, ptr %r, align 8
  br label %if.end

if.end:                                           ; preds = %if.then, %land.lhs.true8, %land.lhs.true, %for.body
  br label %for.inc

for.inc:                                          ; preds = %if.end
  %14 = load ptr, ptr %__begin1, align 8
  %incdec.ptr = getelementptr inbounds ptr, ptr %14, i32 1
  store ptr %incdec.ptr, ptr %__begin1, align 8
  br label %for.cond

for.end:                                          ; preds = %for.cond
  %15 = load ptr, ptr %r, align 8
  ret ptr %15
}