; Function Attrs: mustprogress uwtable
define hidden noundef ptr @_ZN20non_auf_macro_solver13get_macro_forEP9func_declP10quantifier(ptr nocapture noundef nonnull readonly align 8 dereferenceable(44) %this, ptr noundef readnone %f, ptr noundef %q) local_unnamed_addr #3 align 2 {
entry:
  %m_q2info.i = getelementptr inbounds i8, ptr %this, i64 16
  %0 = load ptr, ptr %m_q2info.i, align 8
  %vtable.i = load ptr, ptr %0, align 8
  %vfn.i = getelementptr inbounds i8, ptr %vtable.i, i64 16
  %1 = load ptr, ptr %vfn.i, align 8
  %call.i = tail call noundef ptr %1(ptr noundef nonnull align 8 dereferenceable(8) %0, ptr noundef %q)
  %m_cond_macros.i = getelementptr inbounds i8, ptr %call.i, i64 64
  %2 = load ptr, ptr %m_cond_macros.i, align 8
  %cmp.i.i.i = icmp eq ptr %2, null
  br i1 %cmp.i.i.i, label %for.end, label %_ZNK17scoped_ptr_vectorI10cond_macroE3endEv.exit

_ZNK17scoped_ptr_vectorI10cond_macroE3endEv.exit: ; preds = %entry
  %arrayidx.i.i.i = getelementptr inbounds i8, ptr %2, i64 -4
  %3 = load i32, ptr %arrayidx.i.i.i, align 4
  %4 = zext i32 %3 to i64
  %add.ptr.i.i = getelementptr inbounds ptr, ptr %2, i64 %4
  %cmp.not9 = icmp eq i32 %3, 0
  br i1 %cmp.not9, label %for.end, label %for.body

for.body:                                         ; preds = %_ZNK17scoped_ptr_vectorI10cond_macroE3endEv.exit, %for.inc
  %r.011 = phi ptr [ %r.1, %for.inc ], [ null, %_ZNK17scoped_ptr_vectorI10cond_macroE3endEv.exit ]
  %__begin1.010 = phi ptr [ %incdec.ptr, %for.inc ], [ %2, %_ZNK17scoped_ptr_vectorI10cond_macroE3endEv.exit ]
  %5 = load ptr, ptr %__begin1.010, align 8
  %6 = load ptr, ptr %5, align 8
  %cmp6 = icmp eq ptr %6, %f
  br i1 %cmp6, label %land.lhs.true, label %for.inc

land.lhs.true:                                    ; preds = %for.body
  %m_hint.i = getelementptr inbounds i8, ptr %5, i64 42
  %7 = load i8, ptr %m_hint.i, align 2
  %8 = and i8 %7, 1
  %tobool.i.not = icmp eq i8 %8, 0
  %spec.select = select i1 %tobool.i.not, ptr %5, ptr %r.011
  br label %for.inc

for.inc:                                          ; preds = %land.lhs.true, %for.body
  %r.1 = phi ptr [ %r.011, %for.body ], [ %spec.select, %land.lhs.true ]
  %incdec.ptr = getelementptr inbounds i8, ptr %__begin1.010, i64 8
  %cmp.not = icmp eq ptr %incdec.ptr, %add.ptr.i.i
  br i1 %cmp.not, label %for.end, label %for.body

for.end:                                          ; preds = %for.inc, %entry, %_ZNK17scoped_ptr_vectorI10cond_macroE3endEv.exit
  %r.0.lcssa = phi ptr [ null, %_ZNK17scoped_ptr_vectorI10cond_macroE3endEv.exit ], [ null, %entry ], [ %r.1, %for.inc ]
  ret ptr %r.0.lcssa
}